target datalayout = "e-m:e-p270:32:32-p271:32:32-p272:64:64-i64:64-i128:128-f80:128-n8:16:32:64-S128"
target triple = "x86_64-pc-linux-gnu"

@.str.7 = private unnamed_addr constant [40 x i8] c"../openssl/test/namemap_internal_test.c\00", align 1
@.str.15 = private unnamed_addr constant [3 x i8] c"nm\00", align 1

; Function Attrs: nounwind uwtable
define internal i32 @test_namemap_independent() #0 {
  %1 = alloca ptr, align 8
  %2 = alloca i32, align 4
  call void @llvm.lifetime.start.p0(i64 8, ptr %1) #3
  %3 = call ptr @ossl_namemap_new(ptr noundef null)
  store ptr %3, ptr %1, align 8, !tbaa !4
  call void @llvm.lifetime.start.p0(i64 4, ptr %2) #3
  %4 = load ptr, ptr %1, align 8, !tbaa !4
  %5 = call i32 @test_ptr(ptr noundef @.str.7, i32 noundef 59, ptr noundef @.str.15, ptr noundef %4)
  %6 = icmp ne i32 %5, 0
  br i1 %6, label %7, label %11

7:                                                ; preds = %0
  %8 = load ptr, ptr %1, align 8, !tbaa !4
  %9 = call i32 @test_namemap(ptr noundef %8)
  %10 = icmp ne i32 %9, 0
  br label %11

11:                                               ; preds = %7, %0
  %12 = phi i1 [ false, %0 ], [ %10, %7 ]
  %13 = zext i1 %12 to i32
  store i32 %13, ptr %2, align 4, !tbaa !9
  %14 = load ptr, ptr %1, align 8, !tbaa !4
  call void @ossl_namemap_free(ptr noundef %14)
  %15 = load i32, ptr %2, align 4, !tbaa !9
  call void @llvm.lifetime.end.p0(i64 4, ptr %2) #3
  call void @llvm.lifetime.end.p0(i64 8, ptr %1) #3
  ret i32 %15
}